; Function Attrs: nounwind uwtable
define ptr @l_Lean_findModuleOf_x3f___rarg___lambda__3(ptr noundef %0, ptr noundef %1, ptr noundef %2, ptr noundef %3, ptr readnone captures(none) %4) local_unnamed_addr #0 {
  %6 = getelementptr inbounds nuw i8, ptr %0, i64 8
  %7 = load ptr, ptr %6, align 8, !tbaa !10
  %8 = ptrtoint ptr %7 to i64
  %9 = and i64 %8, 1
  %.not = icmp eq i64 %9, 0
  br i1 %.not, label %10, label %lean_inc.exit18

10:                                               ; preds = %5
  %.val.i = load i32, ptr %7, align 4, !tbaa !4
  %11 = icmp sgt i32 %.val.i, 0
  br i1 %11, label %12, label %14, !prof !9

12:                                               ; preds = %10
  %13 = add nuw i32 %.val.i, 1
  store i32 %13, ptr %7, align 4, !tbaa !4
  br label %lean_inc.exit18

14:                                               ; preds = %10
  %.not.i19 = icmp eq i32 %.val.i, 0
  br i1 %.not.i19, label %lean_inc.exit18, label %15

15:                                               ; preds = %14
  tail call void @lean_inc_ref_cold(ptr noundef nonnull %7) #4
  br label %lean_inc.exit18

lean_inc.exit18:                                  ; preds = %15, %14, %12, %5
  %16 = ptrtoint ptr %0 to i64
  %17 = and i64 %16, 1
  %.not26 = icmp eq i64 %17, 0
  br i1 %.not26, label %18, label %lean_dec.exit

18:                                               ; preds = %lean_inc.exit18
  %19 = load i32, ptr %0, align 4, !tbaa !4
  %20 = icmp sgt i32 %19, 1
  br i1 %20, label %21, label %23, !prof !9

21:                                               ; preds = %18
  %22 = add nsw i32 %19, -1
  store i32 %22, ptr %0, align 4, !tbaa !4
  br label %lean_dec.exit

23:                                               ; preds = %18
  %.not.i = icmp eq i32 %19, 0
  br i1 %.not.i, label %lean_dec.exit, label %24

24:                                               ; preds = %23
  tail call void @lean_dec_ref_cold(ptr noundef nonnull %0) #4
  br label %lean_dec.exit

lean_dec.exit:                                    ; preds = %24, %23, %21, %lean_inc.exit18
  br i1 %.not, label %25, label %lean_inc.exit17

25:                                               ; preds = %lean_dec.exit
  %.val.i20 = load i32, ptr %7, align 4, !tbaa !4
  %26 = icmp sgt i32 %.val.i20, 0
  br i1 %26, label %27, label %29, !prof !9

27:                                               ; preds = %25
  %28 = add nuw i32 %.val.i20, 1
  store i32 %28, ptr %7, align 4, !tbaa !4
  br label %lean_inc.exit17

29:                                               ; preds = %25
  %.not.i21 = icmp eq i32 %.val.i20, 0
  br i1 %.not.i21, label %lean_inc.exit17, label %30

30:                                               ; preds = %29
  tail call void @lean_inc_ref_cold(ptr noundef nonnull %7) #4
  br label %lean_inc.exit17

lean_inc.exit17:                                  ; preds = %30, %29, %27, %lean_dec.exit
  %31 = ptrtoint ptr %3 to i64
  %32 = and i64 %31, 1
  %.not27 = icmp eq i64 %32, 0
  br i1 %.not27, label %33, label %lean_inc.exit

33:                                               ; preds = %lean_inc.exit17
  %.val.i23 = load i32, ptr %3, align 4, !tbaa !4
  %34 = icmp sgt i32 %.val.i23, 0
  br i1 %34, label %35, label %37, !prof !9

35:                                               ; preds = %33
  %36 = add nuw i32 %.val.i23, 1
  store i32 %36, ptr %3, align 4, !tbaa !4
  br label %lean_inc.exit

37:                                               ; preds = %33
  %.not.i24 = icmp eq i32 %.val.i23, 0
  br i1 %.not.i24, label %lean_inc.exit, label %38

38:                                               ; preds = %37
  tail call void @lean_inc_ref_cold(ptr noundef nonnull %3) #4
  br label %lean_inc.exit

lean_inc.exit:                                    ; preds = %38, %37, %35, %lean_inc.exit17
  tail call void @lean_inc_heartbeat() #4
  %39 = tail call noalias ptr @mi_malloc_small(i64 noundef 56) #4
  %40 = icmp eq ptr %39, null
  br i1 %40, label %41, label %lean_alloc_closure.exit

41:                                               ; preds = %lean_inc.exit
  tail call void @lean_internal_panic_out_of_memory() #5
  unreachable

lean_alloc_closure.exit:                          ; preds = %lean_inc.exit
  %42 = getelementptr inbounds nuw i8, ptr %39, i64 4
  store i32 1, ptr %39, align 4, !tbaa !4
  store i32 -184549320, ptr %42, align 4
  %43 = getelementptr inbounds nuw i8, ptr %39, i64 8
  store ptr @l_Lean_findModuleOf_x3f___rarg___lambda__2___boxed, ptr %43, align 8, !tbaa !10
  %44 = getelementptr inbounds nuw i8, ptr %39, i64 16
  store i16 5, ptr %44, align 8, !tbaa !12
  %45 = getelementptr inbounds nuw i8, ptr %39, i64 18
  store i16 4, ptr %45, align 2, !tbaa !12
  %46 = getelementptr inbounds nuw i8, ptr %39, i64 24
  store ptr %1, ptr %46, align 8, !tbaa !10
  %47 = getelementptr inbounds nuw i8, ptr %39, i64 32
  store ptr %2, ptr %47, align 8, !tbaa !10
  %48 = getelementptr inbounds nuw i8, ptr %39, i64 40
  store ptr %3, ptr %48, align 8, !tbaa !10
  %49 = getelementptr inbounds nuw i8, ptr %39, i64 48
  store ptr %7, ptr %49, align 8, !tbaa !10
  %50 = tail call ptr @lean_apply_4(ptr noundef %3, ptr noundef nonnull inttoptr (i64 1 to ptr), ptr noundef nonnull inttoptr (i64 1 to ptr), ptr noundef %7, ptr noundef nonnull %39) #4
  ret ptr %50
}